target datalayout = "e-m:e-p270:32:32-p271:32:32-p272:64:64-i64:64-i128:128-f80:128-n8:16:32:64-S128"
target triple = "x86_64-pc-linux-gnu"

@.str.8 = private unnamed_addr constant [20 x i8] c"llc.apple_atalk_pid\00", align 1
@.str.31 = private unnamed_addr constant [9 x i8] c"ddp.type\00", align 1
@.str.205 = private unnamed_addr constant [28 x i8] c"LLC Apple AppleTalk OUI PID\00", align 1
@.str.206 = private unnamed_addr constant [31 x i8] c"LocalTalk Link Access Protocol\00", align 1
@.str.207 = private unnamed_addr constant [5 x i8] c"LLAP\00", align 1
@.str.208 = private unnamed_addr constant [5 x i8] c"llap\00", align 1
@proto_llap = internal global i32 0, align 4
@llap_handle = internal global ptr null, align 8
@llap_cap_handle = internal global ptr null, align 8
@.str.209 = private unnamed_addr constant [27 x i8] c"Datagram Delivery Protocol\00", align 1
@.str.210 = private unnamed_addr constant [4 x i8] c"DDP\00", align 1
@.str.211 = private unnamed_addr constant [4 x i8] c"ddp\00", align 1
@proto_ddp = internal global i32 0, align 4
@ddp_handle = internal global ptr null, align 8
@.str.212 = private unnamed_addr constant [10 x i8] c"ddp_short\00", align 1
@ddp_short_handle = internal global ptr null, align 8
@.str.213 = private unnamed_addr constant [22 x i8] c"Name Binding Protocol\00", align 1
@.str.214 = private unnamed_addr constant [4 x i8] c"NBP\00", align 1
@.str.215 = private unnamed_addr constant [4 x i8] c"nbp\00", align 1
@proto_nbp = internal global i32 0, align 4
@nbp_handle = internal global ptr null, align 8
@.str.216 = private unnamed_addr constant [38 x i8] c"AppleTalk Transaction Protocol packet\00", align 1
@.str.217 = private unnamed_addr constant [4 x i8] c"ATP\00", align 1
@.str.218 = private unnamed_addr constant [4 x i8] c"atp\00", align 1
@proto_atp = internal global i32 0, align 4
@atp_handle = internal global ptr null, align 8
@.str.219 = private unnamed_addr constant [27 x i8] c"AppleTalk Session Protocol\00", align 1
@.str.220 = private unnamed_addr constant [4 x i8] c"ASP\00", align 1
@.str.221 = private unnamed_addr constant [4 x i8] c"asp\00", align 1
@proto_asp = internal global i32 0, align 4
@asp_handle = internal global ptr null, align 8
@.str.222 = private unnamed_addr constant [24 x i8] c"Printer Access Protocol\00", align 1
@.str.223 = private unnamed_addr constant [5 x i8] c"PrAP\00", align 1
@.str.224 = private unnamed_addr constant [5 x i8] c"prap\00", align 1
@proto_pap = internal global i32 0, align 4
@pap_handle = internal global ptr null, align 8
@.str.225 = private unnamed_addr constant [26 x i8] c"Zone Information Protocol\00", align 1
@.str.226 = private unnamed_addr constant [4 x i8] c"ZIP\00", align 1
@.str.227 = private unnamed_addr constant [4 x i8] c"zip\00", align 1
@proto_zip = internal global i32 0, align 4
@.str.228 = private unnamed_addr constant [8 x i8] c"zip.ddp\00", align 1
@zip_ddp_handle = internal global ptr null, align 8
@.str.229 = private unnamed_addr constant [8 x i8] c"zip.atp\00", align 1
@zip_atp_handle = internal global ptr null, align 8
@.str.230 = private unnamed_addr constant [10 x i8] c"desegment\00", align 1
@.str.231 = private unnamed_addr constant [54 x i8] c"Reassemble ATP messages spanning multiple DDP packets\00", align 1
@.str.232 = private unnamed_addr constant [83 x i8] c"Whether the ATP dissector should reassemble messages spanning multiple DDP packets\00", align 1
@atp_defragment = internal global i8 1, align 1
@.str.233 = private unnamed_addr constant [35 x i8] c"Routing Table Maintenance Protocol\00", align 1
@.str.234 = private unnamed_addr constant [5 x i8] c"RTMP\00", align 1
@.str.235 = private unnamed_addr constant [5 x i8] c"rtmp\00", align 1
@proto_rtmp = internal global i32 0, align 4
@.str.236 = private unnamed_addr constant [13 x i8] c"rtmp.request\00", align 1
@rtmp_request_handle = internal global ptr null, align 8
@.str.237 = private unnamed_addr constant [10 x i8] c"rtmp.data\00", align 1
@rtmp_data_handle = internal global ptr null, align 8
@.str.238 = private unnamed_addr constant [16 x i8] c"DDP packet type\00", align 1
@ddp_dissector_table = internal global ptr null, align 8
@.str.239 = private unnamed_addr constant [9 x i8] c"AT_ATALK\00", align 1
@.str.240 = private unnamed_addr constant [14 x i8] c"Appletalk DDP\00", align 1
@atalk_address_type = internal global i32 -1, align 4

; Function Attrs: null_pointer_is_valid sspstrong uwtable
define hidden void @proto_register_atalk() #1 {
  %1 = alloca ptr, align 8
  %2 = alloca ptr, align 8
  call void @llvm.lifetime.start.p0(i64 8, ptr %1) #11
  call void @llvm.lifetime.start.p0(i64 8, ptr %2) #11
  call void @llc_add_oui(i32 noundef 524295, ptr noundef @.str.8, ptr noundef @.str.205, ptr noundef @proto_register_atalk.hf_llc, i32 noundef -1)
  %3 = call i32 @proto_register_protocol(ptr noundef @.str.206, ptr noundef @.str.207, ptr noundef @.str.208)
  store i32 %3, ptr @proto_llap, align 4
  %4 = load i32, ptr @proto_llap, align 4
  call void @proto_register_field_array(i32 noundef %4, ptr noundef @proto_register_atalk.hf_llap, i32 noundef 3)
  %5 = load i32, ptr @proto_llap, align 4
  %6 = call ptr @register_dissector(ptr noundef @.str.208, ptr noundef @dissect_llap, i32 noundef %5)
  store ptr %6, ptr @llap_handle, align 8
  %7 = load i32, ptr @proto_llap, align 4
  %8 = call ptr @register_capture_dissector(ptr noundef @.str.208, ptr noundef @capture_llap, i32 noundef %7)
  store ptr %8, ptr @llap_cap_handle, align 8
  %9 = call i32 @proto_register_protocol(ptr noundef @.str.209, ptr noundef @.str.210, ptr noundef @.str.211)
  store i32 %9, ptr @proto_ddp, align 4
  %10 = load i32, ptr @proto_ddp, align 4
  call void @proto_register_field_array(i32 noundef %10, ptr noundef @proto_register_atalk.hf_ddp, i32 noundef 12)
  %11 = load i32, ptr @proto_ddp, align 4
  %12 = call ptr @expert_register_protocol(i32 noundef %11)
  store ptr %12, ptr %2, align 8
  %13 = load ptr, ptr %2, align 8
  call void @expert_register_field_array(ptr noundef %13, ptr noundef @proto_register_atalk.ei_ddp, i32 noundef 1)
  %14 = load i32, ptr @proto_ddp, align 4
  %15 = call ptr @register_dissector(ptr noundef @.str.211, ptr noundef @dissect_ddp, i32 noundef %14)
  store ptr %15, ptr @ddp_handle, align 8
  %16 = load i32, ptr @proto_ddp, align 4
  %17 = call ptr @register_dissector(ptr noundef @.str.212, ptr noundef @dissect_ddp_short, i32 noundef %16)
  store ptr %17, ptr @ddp_short_handle, align 8
  %18 = call i32 @proto_register_protocol(ptr noundef @.str.213, ptr noundef @.str.214, ptr noundef @.str.215)
  store i32 %18, ptr @proto_nbp, align 4
  %19 = load i32, ptr @proto_nbp, align 4
  call void @proto_register_field_array(i32 noundef %19, ptr noundef @proto_register_atalk.hf_nbp, i32 noundef 11)
  %20 = load i32, ptr @proto_nbp, align 4
  %21 = call ptr @register_dissector(ptr noundef @.str.215, ptr noundef @dissect_nbp, i32 noundef %20)
  store ptr %21, ptr @nbp_handle, align 8
  %22 = call i32 @proto_register_protocol(ptr noundef @.str.216, ptr noundef @.str.217, ptr noundef @.str.218)
  store i32 %22, ptr @proto_atp, align 4
  %23 = load i32, ptr @proto_atp, align 4
  call void @proto_register_field_array(i32 noundef %23, ptr noundef @proto_register_atalk.hf_atp, i32 noundef 19)
  %24 = load i32, ptr @proto_atp, align 4
  %25 = call ptr @register_dissector(ptr noundef @.str.218, ptr noundef @dissect_atp, i32 noundef %24)
  store ptr %25, ptr @atp_handle, align 8
  %26 = call i32 @proto_register_protocol(ptr noundef @.str.219, ptr noundef @.str.220, ptr noundef @.str.221)
  store i32 %26, ptr @proto_asp, align 4
  %27 = load i32, ptr @proto_asp, align 4
  call void @proto_register_field_array(i32 noundef %27, ptr noundef @proto_register_atalk.hf_asp, i32 noundef 10)
  %28 = load i32, ptr @proto_asp, align 4
  %29 = call ptr @register_dissector(ptr noundef @.str.221, ptr noundef @dissect_asp, i32 noundef %28)
  store ptr %29, ptr @asp_handle, align 8
  %30 = call i32 @proto_register_protocol(ptr noundef @.str.222, ptr noundef @.str.223, ptr noundef @.str.224)
  store i32 %30, ptr @proto_pap, align 4
  %31 = load i32, ptr @proto_pap, align 4
  call void @proto_register_field_array(i32 noundef %31, ptr noundef @proto_register_atalk.hf_pap, i32 noundef 10)
  %32 = load i32, ptr @proto_pap, align 4
  %33 = call ptr @register_dissector(ptr noundef @.str.224, ptr noundef @dissect_pap, i32 noundef %32)
  store ptr %33, ptr @pap_handle, align 8
  %34 = call i32 @proto_register_protocol(ptr noundef @.str.225, ptr noundef @.str.226, ptr noundef @.str.227)
  store i32 %34, ptr @proto_zip, align 4
  %35 = load i32, ptr @proto_zip, align 4
  call void @proto_register_field_array(i32 noundef %35, ptr noundef @proto_register_atalk.hf_zip, i32 noundef 18)
  %36 = load i32, ptr @proto_zip, align 4
  %37 = call ptr @register_dissector(ptr noundef @.str.228, ptr noundef @dissect_ddp_zip, i32 noundef %36)
  store ptr %37, ptr @zip_ddp_handle, align 8
  %38 = load i32, ptr @proto_zip, align 4
  %39 = call ptr @register_dissector(ptr noundef @.str.229, ptr noundef @dissect_atp_zip, i32 noundef %38)
  store ptr %39, ptr @zip_atp_handle, align 8
  %40 = load i32, ptr @proto_atp, align 4
  %41 = call ptr @prefs_register_protocol(i32 noundef %40, ptr noundef null)
  store ptr %41, ptr %1, align 8
  %42 = load ptr, ptr %1, align 8
  call void @prefs_register_bool_preference(ptr noundef %42, ptr noundef @.str.230, ptr noundef @.str.231, ptr noundef @.str.232, ptr noundef @atp_defragment)
  %43 = call i32 @proto_register_protocol(ptr noundef @.str.233, ptr noundef @.str.234, ptr noundef @.str.235)
  store i32 %43, ptr @proto_rtmp, align 4
  %44 = load i32, ptr @proto_rtmp, align 4
  call void @proto_register_field_array(i32 noundef %44, ptr noundef @proto_register_atalk.hf_rtmp, i32 noundef 9)
  %45 = load i32, ptr @proto_rtmp, align 4
  %46 = call ptr @register_dissector(ptr noundef @.str.236, ptr noundef @dissect_rtmp_request, i32 noundef %45)
  store ptr %46, ptr @rtmp_request_handle, align 8
  %47 = load i32, ptr @proto_rtmp, align 4
  %48 = call ptr @register_dissector(ptr noundef @.str.237, ptr noundef @dissect_rtmp_data, i32 noundef %47)
  store ptr %48, ptr @rtmp_data_handle, align 8
  call void @proto_register_subtree_array(ptr noundef @proto_register_atalk.ett, i32 noundef 18)
  %49 = load i32, ptr @proto_ddp, align 4
  %50 = call ptr @register_dissector_table(ptr noundef @.str.31, ptr noundef @.str.238, i32 noundef %49, i32 noundef 4, i32 noundef 2)
  store ptr %50, ptr @ddp_dissector_table, align 8
  %51 = call i32 @address_type_dissector_register(ptr noundef @.str.239, ptr noundef @.str.240, ptr noundef @atalk_to_str, ptr noundef @atalk_str_len, ptr noundef null, ptr noundef @atalk_col_filter_str, ptr noundef @atalk_len, ptr noundef null, ptr noundef null)
  store i32 %51, ptr @atalk_address_type, align 4
  call void @llvm.lifetime.end.p0(i64 8, ptr %2) #11
  call void @llvm.lifetime.end.p0(i64 8, ptr %1) #11
  ret void
}