; Function Attrs: null_pointer_is_valid sspstrong uwtable
define hidden void @proto_register_atalk() local_unnamed_addr #1 {
  tail call void @llc_add_oui(i32 noundef 524295, ptr noundef nonnull @.str.8, ptr noundef nonnull @.str.205, ptr noundef nonnull @proto_register_atalk.hf_llc, i32 noundef -1)
  %1 = tail call i32 @proto_register_protocol(ptr noundef nonnull @.str.206, ptr noundef nonnull @.str.207, ptr noundef nonnull @.str.208)
  store i32 %1, ptr @proto_llap, align 4
  tail call void @proto_register_field_array(i32 noundef %1, ptr noundef nonnull @proto_register_atalk.hf_llap, i32 noundef 3)
  %2 = load i32, ptr @proto_llap, align 4
  %3 = tail call ptr @register_dissector(ptr noundef nonnull @.str.208, ptr noundef nonnull @dissect_llap, i32 noundef %2)
  store ptr %3, ptr @llap_handle, align 8
  %4 = load i32, ptr @proto_llap, align 4
  %5 = tail call ptr @register_capture_dissector(ptr noundef nonnull @.str.208, ptr noundef nonnull @capture_llap, i32 noundef %4)
  store ptr %5, ptr @llap_cap_handle, align 8
  %6 = tail call i32 @proto_register_protocol(ptr noundef nonnull @.str.209, ptr noundef nonnull @.str.210, ptr noundef nonnull @.str.211)
  store i32 %6, ptr @proto_ddp, align 4
  tail call void @proto_register_field_array(i32 noundef %6, ptr noundef nonnull @proto_register_atalk.hf_ddp, i32 noundef 12)
  %7 = load i32, ptr @proto_ddp, align 4
  %8 = tail call ptr @expert_register_protocol(i32 noundef %7)
  tail call void @expert_register_field_array(ptr noundef %8, ptr noundef nonnull @proto_register_atalk.ei_ddp, i32 noundef 1)
  %9 = load i32, ptr @proto_ddp, align 4
  %10 = tail call ptr @register_dissector(ptr noundef nonnull @.str.211, ptr noundef nonnull @dissect_ddp, i32 noundef %9)
  store ptr %10, ptr @ddp_handle, align 8
  %11 = load i32, ptr @proto_ddp, align 4
  %12 = tail call ptr @register_dissector(ptr noundef nonnull @.str.212, ptr noundef nonnull @dissect_ddp_short, i32 noundef %11)
  store ptr %12, ptr @ddp_short_handle, align 8
  %13 = tail call i32 @proto_register_protocol(ptr noundef nonnull @.str.213, ptr noundef nonnull @.str.214, ptr noundef nonnull @.str.215)
  store i32 %13, ptr @proto_nbp, align 4
  tail call void @proto_register_field_array(i32 noundef %13, ptr noundef nonnull @proto_register_atalk.hf_nbp, i32 noundef 11)
  %14 = load i32, ptr @proto_nbp, align 4
  %15 = tail call ptr @register_dissector(ptr noundef nonnull @.str.215, ptr noundef nonnull @dissect_nbp, i32 noundef %14)
  store ptr %15, ptr @nbp_handle, align 8
  %16 = tail call i32 @proto_register_protocol(ptr noundef nonnull @.str.216, ptr noundef nonnull @.str.217, ptr noundef nonnull @.str.218)
  store i32 %16, ptr @proto_atp, align 4
  tail call void @proto_register_field_array(i32 noundef %16, ptr noundef nonnull @proto_register_atalk.hf_atp, i32 noundef 19)
  %17 = load i32, ptr @proto_atp, align 4
  %18 = tail call ptr @register_dissector(ptr noundef nonnull @.str.218, ptr noundef nonnull @dissect_atp, i32 noundef %17)
  store ptr %18, ptr @atp_handle, align 8
  %19 = tail call i32 @proto_register_protocol(ptr noundef nonnull @.str.219, ptr noundef nonnull @.str.220, ptr noundef nonnull @.str.221)
  store i32 %19, ptr @proto_asp, align 4
  tail call void @proto_register_field_array(i32 noundef %19, ptr noundef nonnull @proto_register_atalk.hf_asp, i32 noundef 10)
  %20 = load i32, ptr @proto_asp, align 4
  %21 = tail call ptr @register_dissector(ptr noundef nonnull @.str.221, ptr noundef nonnull @dissect_asp, i32 noundef %20)
  store ptr %21, ptr @asp_handle, align 8
  %22 = tail call i32 @proto_register_protocol(ptr noundef nonnull @.str.222, ptr noundef nonnull @.str.223, ptr noundef nonnull @.str.224)
  store i32 %22, ptr @proto_pap, align 4
  tail call void @proto_register_field_array(i32 noundef %22, ptr noundef nonnull @proto_register_atalk.hf_pap, i32 noundef 10)
  %23 = load i32, ptr @proto_pap, align 4
  %24 = tail call ptr @register_dissector(ptr noundef nonnull @.str.224, ptr noundef nonnull @dissect_pap, i32 noundef %23)
  store ptr %24, ptr @pap_handle, align 8
  %25 = tail call i32 @proto_register_protocol(ptr noundef nonnull @.str.225, ptr noundef nonnull @.str.226, ptr noundef nonnull @.str.227)
  store i32 %25, ptr @proto_zip, align 4
  tail call void @proto_register_field_array(i32 noundef %25, ptr noundef nonnull @proto_register_atalk.hf_zip, i32 noundef 18)
  %26 = load i32, ptr @proto_zip, align 4
  %27 = tail call ptr @register_dissector(ptr noundef nonnull @.str.228, ptr noundef nonnull @dissect_ddp_zip, i32 noundef %26)
  store ptr %27, ptr @zip_ddp_handle, align 8
  %28 = load i32, ptr @proto_zip, align 4
  %29 = tail call ptr @register_dissector(ptr noundef nonnull @.str.229, ptr noundef nonnull @dissect_atp_zip, i32 noundef %28)
  store ptr %29, ptr @zip_atp_handle, align 8
  %30 = load i32, ptr @proto_atp, align 4
  %31 = tail call ptr @prefs_register_protocol(i32 noundef %30, ptr noundef null)
  tail call void @prefs_register_bool_preference(ptr noundef %31, ptr noundef nonnull @.str.230, ptr noundef nonnull @.str.231, ptr noundef nonnull @.str.232, ptr noundef nonnull @atp_defragment)
  %32 = tail call i32 @proto_register_protocol(ptr noundef nonnull @.str.233, ptr noundef nonnull @.str.234, ptr noundef nonnull @.str.235)
  store i32 %32, ptr @proto_rtmp, align 4
  tail call void @proto_register_field_array(i32 noundef %32, ptr noundef nonnull @proto_register_atalk.hf_rtmp, i32 noundef 9)
  %33 = load i32, ptr @proto_rtmp, align 4
  %34 = tail call ptr @register_dissector(ptr noundef nonnull @.str.236, ptr noundef nonnull @dissect_rtmp_request, i32 noundef %33)
  store ptr %34, ptr @rtmp_request_handle, align 8
  %35 = load i32, ptr @proto_rtmp, align 4
  %36 = tail call ptr @register_dissector(ptr noundef nonnull @.str.237, ptr noundef nonnull @dissect_rtmp_data, i32 noundef %35)
  store ptr %36, ptr @rtmp_data_handle, align 8
  tail call void @proto_register_subtree_array(ptr noundef nonnull @proto_register_atalk.ett, i32 noundef 18)
  %37 = load i32, ptr @proto_ddp, align 4
  %38 = tail call ptr @register_dissector_table(ptr noundef nonnull @.str.31, ptr noundef nonnull @.str.238, i32 noundef %37, i32 noundef 4, i32 noundef 2)
  store ptr %38, ptr @ddp_dissector_table, align 8
  %39 = tail call i32 @address_type_dissector_register(ptr noundef nonnull @.str.239, ptr noundef nonnull @.str.240, ptr noundef nonnull @atalk_to_str, ptr noundef nonnull @atalk_str_len, ptr noundef null, ptr noundef nonnull @atalk_col_filter_str, ptr noundef nonnull @atalk_len, ptr noundef null, ptr noundef null)
  store i32 %39, ptr @atalk_address_type, align 4
  ret void
}